target datalayout = "e-m:e-p270:32:32-p271:32:32-p272:64:64-i64:64-i128:128-f80:128-n8:16:32:64-S128"
target triple = "x86_64-pc-linux-gnu"

%struct.ARKodeMemRec = type { ptr, double, ptr, i32, i32, double, double, ptr, i32, double, ptr, i32, i32, ptr, ptr, i32, ptr, ptr, i32, ptr, ptr, ptr, ptr, ptr, ptr, ptr, ptr, ptr, ptr, ptr, ptr, ptr, ptr, ptr, i32, ptr, ptr, i32, ptr, i32, ptr, ptr, ptr, ptr, ptr, ptr, ptr, ptr, ptr, ptr, ptr, ptr, ptr, ptr, ptr, ptr, ptr, ptr, ptr, ptr, ptr, ptr, ptr, ptr, ptr, ptr, i32, ptr, ptr, ptr, ptr, ptr, ptr, ptr, i32, ptr, ptr, ptr, i32, ptr, ptr, ptr, ptr, ptr, ptr, ptr, i32, i32, i32, i32, double, double, double, double, double, double, double, double, double, double, i32, ptr, i64, i32, i32, i32, i32, i64, i64, i32, i64, i64, i64, i64, i64, i64, i64, double, double, double, double, double, i32, double, double, i32, i32, i32, i32, i32, i32, i32, i32, ptr, i32, ptr, ptr, ptr, ptr, i32, i32, i32 }
%struct.ARKodeHAdaptMemRec = type { double, double, double, double, i32, double, double, double, double, double, double, i32, i32, i32, i32, ptr, i32, ptr, ptr, i64, i64 }

@.str = private unnamed_addr constant [115 x i8] c"generated/home/dtcxzyw/WorkSpace/Projects/compilers/llvm-opt-benchmark/bench/sundials/sundials/src/arkode/arkode.c\00", align 1
@.str.137 = private unnamed_addr constant [43 x i8] c"Adaptivity memory structure not allocated.\00", align 1
@__func__.arkCheckTemporalError = private unnamed_addr constant [22 x i8] c"arkCheckTemporalError\00", align 1

; Function Attrs: nounwind uwtable
define i32 @arkCheckTemporalError(ptr noundef %0, ptr noundef %1, ptr noundef %2, double noundef %3) #0 {
  %5 = alloca i32, align 4
  %6 = alloca ptr, align 8
  %7 = alloca ptr, align 8
  %8 = alloca ptr, align 8
  %9 = alloca double, align 8
  %10 = alloca i32, align 4
  %11 = alloca double, align 8
  %12 = alloca ptr, align 8
  %13 = alloca i32, align 4
  store ptr %0, ptr %6, align 8, !tbaa !11
  store ptr %1, ptr %7, align 8, !tbaa !138
  store ptr %2, ptr %8, align 8, !tbaa !138
  store double %3, ptr %9, align 8, !tbaa !9
  call void @llvm.lifetime.start.p0(i64 4, ptr %10) #10
  call void @llvm.lifetime.start.p0(i64 8, ptr %11) #10
  call void @llvm.lifetime.start.p0(i64 8, ptr %12) #10
  %14 = load ptr, ptr %6, align 8, !tbaa !11
  %15 = getelementptr inbounds nuw %struct.ARKodeMemRec, ptr %14, i32 0, i32 101
  %16 = load ptr, ptr %15, align 8, !tbaa !70
  %17 = icmp eq ptr %16, null
  br i1 %17, label %18, label %20

18:                                               ; preds = %4
  %19 = load ptr, ptr %6, align 8, !tbaa !11
  call void (ptr, i32, i32, ptr, ptr, ptr, ...) @arkProcessError(ptr noundef %19, i32 noundef -21, i32 noundef 3257, ptr noundef @__func__.arkCheckTemporalError, ptr noundef @.str, ptr noundef @.str.137)
  store i32 -21, ptr %5, align 4
  store i32 1, ptr %13, align 4
  br label %274

20:                                               ; preds = %4
  %21 = load ptr, ptr %6, align 8, !tbaa !11
  %22 = getelementptr inbounds nuw %struct.ARKodeMemRec, ptr %21, i32 0, i32 101
  %23 = load ptr, ptr %22, align 8, !tbaa !70
  store ptr %23, ptr %12, align 8, !tbaa !139
  %24 = load double, ptr %9, align 8, !tbaa !9
  %25 = fcmp ole double %24, 1.000000e+00
  br i1 %25, label %26, label %34

26:                                               ; preds = %20
  %27 = load ptr, ptr %6, align 8, !tbaa !11
  %28 = getelementptr inbounds nuw %struct.ARKodeMemRec, ptr %27, i32 0, i32 118
  %29 = load double, ptr %28, align 8, !tbaa !23
  %30 = load ptr, ptr %6, align 8, !tbaa !11
  %31 = getelementptr inbounds nuw %struct.ARKodeMemRec, ptr %30, i32 0, i32 92
  %32 = load double, ptr %31, align 8, !tbaa !29
  %33 = fadd double %29, %32
  br label %38

34:                                               ; preds = %20
  %35 = load ptr, ptr %6, align 8, !tbaa !11
  %36 = getelementptr inbounds nuw %struct.ARKodeMemRec, ptr %35, i32 0, i32 118
  %37 = load double, ptr %36, align 8, !tbaa !23
  br label %38

38:                                               ; preds = %34, %26
  %39 = phi double [ %33, %26 ], [ %37, %34 ]
  store double %39, ptr %11, align 8, !tbaa !9
  %40 = load ptr, ptr %6, align 8, !tbaa !11
  %41 = load ptr, ptr %12, align 8, !tbaa !139
  %42 = load ptr, ptr %6, align 8, !tbaa !11
  %43 = getelementptr inbounds nuw %struct.ARKodeMemRec, ptr %42, i32 0, i32 75
  %44 = load ptr, ptr %43, align 8, !tbaa !106
  %45 = load double, ptr %11, align 8, !tbaa !9
  %46 = load ptr, ptr %6, align 8, !tbaa !11
  %47 = getelementptr inbounds nuw %struct.ARKodeMemRec, ptr %46, i32 0, i32 92
  %48 = load double, ptr %47, align 8, !tbaa !29
  %49 = load double, ptr %9, align 8, !tbaa !9
  %50 = call i32 @arkAdapt(ptr noundef %40, ptr noundef %41, ptr noundef %44, double noundef %45, double noundef %48, double noundef %49)
  store i32 %50, ptr %10, align 4, !tbaa !38
  %51 = load i32, ptr %10, align 4, !tbaa !38
  %52 = icmp ne i32 %51, 0
  br i1 %52, label %53, label %54

53:                                               ; preds = %38
  store i32 -3, ptr %5, align 4
  store i32 1, ptr %13, align 4
  br label %274

54:                                               ; preds = %38
  %55 = load ptr, ptr %6, align 8, !tbaa !11
  %56 = getelementptr inbounds nuw %struct.ARKodeMemRec, ptr %55, i32 0, i32 97
  %57 = load double, ptr %56, align 8, !tbaa !24
  %58 = load ptr, ptr %6, align 8, !tbaa !11
  %59 = getelementptr inbounds nuw %struct.ARKodeMemRec, ptr %58, i32 0, i32 101
  %60 = load ptr, ptr %59, align 8, !tbaa !70
  %61 = getelementptr inbounds nuw %struct.ARKodeHAdaptMemRec, ptr %60, i32 0, i32 0
  %62 = load double, ptr %61, align 8, !tbaa !135
  %63 = fcmp olt double %57, %62
  br i1 %63, label %64, label %68

64:                                               ; preds = %54
  %65 = load ptr, ptr %6, align 8, !tbaa !11
  %66 = getelementptr inbounds nuw %struct.ARKodeMemRec, ptr %65, i32 0, i32 97
  %67 = load double, ptr %66, align 8, !tbaa !24
  br label %74

68:                                               ; preds = %54
  %69 = load ptr, ptr %6, align 8, !tbaa !11
  %70 = getelementptr inbounds nuw %struct.ARKodeMemRec, ptr %69, i32 0, i32 101
  %71 = load ptr, ptr %70, align 8, !tbaa !70
  %72 = getelementptr inbounds nuw %struct.ARKodeHAdaptMemRec, ptr %71, i32 0, i32 0
  %73 = load double, ptr %72, align 8, !tbaa !135
  br label %74

74:                                               ; preds = %68, %64
  %75 = phi double [ %67, %64 ], [ %73, %68 ]
  %76 = load ptr, ptr %6, align 8, !tbaa !11
  %77 = getelementptr inbounds nuw %struct.ARKodeMemRec, ptr %76, i32 0, i32 97
  store double %75, ptr %77, align 8, !tbaa !24
  %78 = load ptr, ptr %6, align 8, !tbaa !11
  %79 = getelementptr inbounds nuw %struct.ARKodeMemRec, ptr %78, i32 0, i32 97
  %80 = load double, ptr %79, align 8, !tbaa !24
  %81 = load ptr, ptr %6, align 8, !tbaa !11
  %82 = getelementptr inbounds nuw %struct.ARKodeMemRec, ptr %81, i32 0, i32 93
  %83 = load double, ptr %82, align 8, !tbaa !121
  %84 = load ptr, ptr %6, align 8, !tbaa !11
  %85 = getelementptr inbounds nuw %struct.ARKodeMemRec, ptr %84, i32 0, i32 92
  %86 = load double, ptr %85, align 8, !tbaa !29
  %87 = call double @llvm.fabs.f64(double %86)
  %88 = fdiv double %83, %87
  %89 = fcmp ogt double %80, %88
  br i1 %89, label %90, label %94

90:                                               ; preds = %74
  %91 = load ptr, ptr %6, align 8, !tbaa !11
  %92 = getelementptr inbounds nuw %struct.ARKodeMemRec, ptr %91, i32 0, i32 97
  %93 = load double, ptr %92, align 8, !tbaa !24
  br label %103

94:                                               ; preds = %74
  %95 = load ptr, ptr %6, align 8, !tbaa !11
  %96 = getelementptr inbounds nuw %struct.ARKodeMemRec, ptr %95, i32 0, i32 93
  %97 = load double, ptr %96, align 8, !tbaa !121
  %98 = load ptr, ptr %6, align 8, !tbaa !11
  %99 = getelementptr inbounds nuw %struct.ARKodeMemRec, ptr %98, i32 0, i32 92
  %100 = load double, ptr %99, align 8, !tbaa !29
  %101 = call double @llvm.fabs.f64(double %100)
  %102 = fdiv double %97, %101
  br label %103

103:                                              ; preds = %94, %90
  %104 = phi double [ %93, %90 ], [ %102, %94 ]
  %105 = load ptr, ptr %6, align 8, !tbaa !11
  %106 = getelementptr inbounds nuw %struct.ARKodeMemRec, ptr %105, i32 0, i32 97
  store double %104, ptr %106, align 8, !tbaa !24
  %107 = load ptr, ptr %6, align 8, !tbaa !11
  %108 = getelementptr inbounds nuw %struct.ARKodeMemRec, ptr %107, i32 0, i32 92
  %109 = load double, ptr %108, align 8, !tbaa !29
  %110 = call double @llvm.fabs.f64(double %109)
  %111 = load ptr, ptr %6, align 8, !tbaa !11
  %112 = getelementptr inbounds nuw %struct.ARKodeMemRec, ptr %111, i32 0, i32 94
  %113 = load double, ptr %112, align 8, !tbaa !137
  %114 = fmul double %110, %113
  %115 = load ptr, ptr %6, align 8, !tbaa !11
  %116 = getelementptr inbounds nuw %struct.ARKodeMemRec, ptr %115, i32 0, i32 97
  %117 = load double, ptr %116, align 8, !tbaa !24
  %118 = fmul double %114, %117
  %119 = fcmp ogt double 1.000000e+00, %118
  br i1 %119, label %120, label %121

120:                                              ; preds = %103
  br label %134

121:                                              ; preds = %103
  %122 = load ptr, ptr %6, align 8, !tbaa !11
  %123 = getelementptr inbounds nuw %struct.ARKodeMemRec, ptr %122, i32 0, i32 92
  %124 = load double, ptr %123, align 8, !tbaa !29
  %125 = call double @llvm.fabs.f64(double %124)
  %126 = load ptr, ptr %6, align 8, !tbaa !11
  %127 = getelementptr inbounds nuw %struct.ARKodeMemRec, ptr %126, i32 0, i32 94
  %128 = load double, ptr %127, align 8, !tbaa !137
  %129 = fmul double %125, %128
  %130 = load ptr, ptr %6, align 8, !tbaa !11
  %131 = getelementptr inbounds nuw %struct.ARKodeMemRec, ptr %130, i32 0, i32 97
  %132 = load double, ptr %131, align 8, !tbaa !24
  %133 = fmul double %129, %132
  br label %134

134:                                              ; preds = %121, %120
  %135 = phi double [ 1.000000e+00, %120 ], [ %133, %121 ]
  %136 = load ptr, ptr %6, align 8, !tbaa !11
  %137 = getelementptr inbounds nuw %struct.ARKodeMemRec, ptr %136, i32 0, i32 97
  %138 = load double, ptr %137, align 8, !tbaa !24
  %139 = fdiv double %138, %135
  store double %139, ptr %137, align 8, !tbaa !24
  %140 = load double, ptr %9, align 8, !tbaa !9
  %141 = fcmp ole double %140, 1.000000e+00
  br i1 %141, label %142, label %143

142:                                              ; preds = %134
  store i32 0, ptr %5, align 4
  store i32 1, ptr %13, align 4
  br label %274

143:                                              ; preds = %134
  %144 = load ptr, ptr %8, align 8, !tbaa !138
  %145 = load i32, ptr %144, align 4, !tbaa !38
  %146 = add nsw i32 %145, 1
  store i32 %146, ptr %144, align 4, !tbaa !38
  %147 = load ptr, ptr %6, align 8, !tbaa !11
  %148 = getelementptr inbounds nuw %struct.ARKodeMemRec, ptr %147, i32 0, i32 111
  %149 = load i64, ptr %148, align 8, !tbaa !64
  %150 = add nsw i64 %149, 1
  store i64 %150, ptr %148, align 8, !tbaa !64
  %151 = load ptr, ptr %7, align 8, !tbaa !138
  store i32 8, ptr %151, align 4, !tbaa !38
  %152 = load ptr, ptr %8, align 8, !tbaa !138
  %153 = load i32, ptr %152, align 4, !tbaa !38
  %154 = load ptr, ptr %6, align 8, !tbaa !11
  %155 = getelementptr inbounds nuw %struct.ARKodeMemRec, ptr %154, i32 0, i32 105
  %156 = load i32, ptr %155, align 8, !tbaa !145
  %157 = icmp eq i32 %153, %156
  br i1 %157, label %158, label %159

158:                                              ; preds = %143
  store i32 -3, ptr %5, align 4
  store i32 1, ptr %13, align 4
  br label %274

159:                                              ; preds = %143
  %160 = load ptr, ptr %12, align 8, !tbaa !139
  %161 = getelementptr inbounds nuw %struct.ARKodeHAdaptMemRec, ptr %160, i32 0, i32 0
  store double 1.000000e+00, ptr %161, align 8, !tbaa !135
  %162 = load ptr, ptr %8, align 8, !tbaa !138
  %163 = load i32, ptr %162, align 4, !tbaa !38
  %164 = load ptr, ptr %12, align 8, !tbaa !139
  %165 = getelementptr inbounds nuw %struct.ARKodeHAdaptMemRec, ptr %164, i32 0, i32 4
  %166 = load i32, ptr %165, align 8, !tbaa !146
  %167 = icmp sge i32 %163, %166
  br i1 %167, label %168, label %188

168:                                              ; preds = %159
  %169 = load ptr, ptr %6, align 8, !tbaa !11
  %170 = getelementptr inbounds nuw %struct.ARKodeMemRec, ptr %169, i32 0, i32 97
  %171 = load double, ptr %170, align 8, !tbaa !24
  %172 = load ptr, ptr %12, align 8, !tbaa !139
  %173 = getelementptr inbounds nuw %struct.ARKodeHAdaptMemRec, ptr %172, i32 0, i32 2
  %174 = load double, ptr %173, align 8, !tbaa !147
  %175 = fcmp olt double %171, %174
  br i1 %175, label %176, label %180

176:                                              ; preds = %168
  %177 = load ptr, ptr %6, align 8, !tbaa !11
  %178 = getelementptr inbounds nuw %struct.ARKodeMemRec, ptr %177, i32 0, i32 97
  %179 = load double, ptr %178, align 8, !tbaa !24
  br label %184

180:                                              ; preds = %168
  %181 = load ptr, ptr %12, align 8, !tbaa !139
  %182 = getelementptr inbounds nuw %struct.ARKodeHAdaptMemRec, ptr %181, i32 0, i32 2
  %183 = load double, ptr %182, align 8, !tbaa !147
  br label %184

184:                                              ; preds = %180, %176
  %185 = phi double [ %179, %176 ], [ %183, %180 ]
  %186 = load ptr, ptr %6, align 8, !tbaa !11
  %187 = getelementptr inbounds nuw %struct.ARKodeMemRec, ptr %186, i32 0, i32 97
  store double %185, ptr %187, align 8, !tbaa !24
  br label %188

188:                                              ; preds = %184, %159
  %189 = load ptr, ptr %6, align 8, !tbaa !11
  %190 = getelementptr inbounds nuw %struct.ARKodeMemRec, ptr %189, i32 0, i32 97
  %191 = load double, ptr %190, align 8, !tbaa !24
  %192 = load ptr, ptr %6, align 8, !tbaa !11
  %193 = getelementptr inbounds nuw %struct.ARKodeMemRec, ptr %192, i32 0, i32 101
  %194 = load ptr, ptr %193, align 8, !tbaa !70
  %195 = getelementptr inbounds nuw %struct.ARKodeHAdaptMemRec, ptr %194, i32 0, i32 0
  %196 = load double, ptr %195, align 8, !tbaa !135
  %197 = fcmp olt double %191, %196
  br i1 %197, label %198, label %202

198:                                              ; preds = %188
  %199 = load ptr, ptr %6, align 8, !tbaa !11
  %200 = getelementptr inbounds nuw %struct.ARKodeMemRec, ptr %199, i32 0, i32 97
  %201 = load double, ptr %200, align 8, !tbaa !24
  br label %208

202:                                              ; preds = %188
  %203 = load ptr, ptr %6, align 8, !tbaa !11
  %204 = getelementptr inbounds nuw %struct.ARKodeMemRec, ptr %203, i32 0, i32 101
  %205 = load ptr, ptr %204, align 8, !tbaa !70
  %206 = getelementptr inbounds nuw %struct.ARKodeHAdaptMemRec, ptr %205, i32 0, i32 0
  %207 = load double, ptr %206, align 8, !tbaa !135
  br label %208

208:                                              ; preds = %202, %198
  %209 = phi double [ %201, %198 ], [ %207, %202 ]
  %210 = load ptr, ptr %6, align 8, !tbaa !11
  %211 = getelementptr inbounds nuw %struct.ARKodeMemRec, ptr %210, i32 0, i32 97
  store double %209, ptr %211, align 8, !tbaa !24
  %212 = load ptr, ptr %6, align 8, !tbaa !11
  %213 = getelementptr inbounds nuw %struct.ARKodeMemRec, ptr %212, i32 0, i32 97
  %214 = load double, ptr %213, align 8, !tbaa !24
  %215 = load ptr, ptr %6, align 8, !tbaa !11
  %216 = getelementptr inbounds nuw %struct.ARKodeMemRec, ptr %215, i32 0, i32 93
  %217 = load double, ptr %216, align 8, !tbaa !121
  %218 = load ptr, ptr %6, align 8, !tbaa !11
  %219 = getelementptr inbounds nuw %struct.ARKodeMemRec, ptr %218, i32 0, i32 92
  %220 = load double, ptr %219, align 8, !tbaa !29
  %221 = call double @llvm.fabs.f64(double %220)
  %222 = fdiv double %217, %221
  %223 = fcmp ogt double %214, %222
  br i1 %223, label %224, label %228

224:                                              ; preds = %208
  %225 = load ptr, ptr %6, align 8, !tbaa !11
  %226 = getelementptr inbounds nuw %struct.ARKodeMemRec, ptr %225, i32 0, i32 97
  %227 = load double, ptr %226, align 8, !tbaa !24
  br label %237

228:                                              ; preds = %208
  %229 = load ptr, ptr %6, align 8, !tbaa !11
  %230 = getelementptr inbounds nuw %struct.ARKodeMemRec, ptr %229, i32 0, i32 93
  %231 = load double, ptr %230, align 8, !tbaa !121
  %232 = load ptr, ptr %6, align 8, !tbaa !11
  %233 = getelementptr inbounds nuw %struct.ARKodeMemRec, ptr %232, i32 0, i32 92
  %234 = load double, ptr %233, align 8, !tbaa !29
  %235 = call double @llvm.fabs.f64(double %234)
  %236 = fdiv double %231, %235
  br label %237

237:                                              ; preds = %228, %224
  %238 = phi double [ %227, %224 ], [ %236, %228 ]
  %239 = load ptr, ptr %6, align 8, !tbaa !11
  %240 = getelementptr inbounds nuw %struct.ARKodeMemRec, ptr %239, i32 0, i32 97
  store double %238, ptr %240, align 8, !tbaa !24
  %241 = load ptr, ptr %6, align 8, !tbaa !11
  %242 = getelementptr inbounds nuw %struct.ARKodeMemRec, ptr %241, i32 0, i32 92
  %243 = load double, ptr %242, align 8, !tbaa !29
  %244 = call double @llvm.fabs.f64(double %243)
  %245 = load ptr, ptr %6, align 8, !tbaa !11
  %246 = getelementptr inbounds nuw %struct.ARKodeMemRec, ptr %245, i32 0, i32 94
  %247 = load double, ptr %246, align 8, !tbaa !137
  %248 = fmul double %244, %247
  %249 = load ptr, ptr %6, align 8, !tbaa !11
  %250 = getelementptr inbounds nuw %struct.ARKodeMemRec, ptr %249, i32 0, i32 97
  %251 = load double, ptr %250, align 8, !tbaa !24
  %252 = fmul double %248, %251
  %253 = fcmp ogt double 1.000000e+00, %252
  br i1 %253, label %254, label %255

254:                                              ; preds = %237
  br label %268

255:                                              ; preds = %237
  %256 = load ptr, ptr %6, align 8, !tbaa !11
  %257 = getelementptr inbounds nuw %struct.ARKodeMemRec, ptr %256, i32 0, i32 92
  %258 = load double, ptr %257, align 8, !tbaa !29
  %259 = call double @llvm.fabs.f64(double %258)
  %260 = load ptr, ptr %6, align 8, !tbaa !11
  %261 = getelementptr inbounds nuw %struct.ARKodeMemRec, ptr %260, i32 0, i32 94
  %262 = load double, ptr %261, align 8, !tbaa !137
  %263 = fmul double %259, %262
  %264 = load ptr, ptr %6, align 8, !tbaa !11
  %265 = getelementptr inbounds nuw %struct.ARKodeMemRec, ptr %264, i32 0, i32 97
  %266 = load double, ptr %265, align 8, !tbaa !24
  %267 = fmul double %263, %266
  br label %268

268:                                              ; preds = %255, %254
  %269 = phi double [ 1.000000e+00, %254 ], [ %267, %255 ]
  %270 = load ptr, ptr %6, align 8, !tbaa !11
  %271 = getelementptr inbounds nuw %struct.ARKodeMemRec, ptr %270, i32 0, i32 97
  %272 = load double, ptr %271, align 8, !tbaa !24
  %273 = fdiv double %272, %269
  store double %273, ptr %271, align 8, !tbaa !24
  store i32 5, ptr %5, align 4
  store i32 1, ptr %13, align 4
  br label %274

274:                                              ; preds = %268, %158, %142, %53, %18
  call void @llvm.lifetime.end.p0(i64 8, ptr %12) #10
  call void @llvm.lifetime.end.p0(i64 8, ptr %11) #10
  call void @llvm.lifetime.end.p0(i64 4, ptr %10) #10
  %275 = load i32, ptr %5, align 4
  ret i32 %275
}