; Function Attrs: nounwind uwtable
define range(i32 -21, 6) i32 @arkCheckTemporalError(ptr noundef %0, ptr noundef writeonly captures(none) %1, ptr noundef captures(none) %2, double noundef %3) local_unnamed_addr #0 {
  %5 = getelementptr inbounds nuw i8, ptr %0, i64 776
  %6 = load ptr, ptr %5, align 8, !tbaa !78
  %7 = icmp eq ptr %6, null
  br i1 %7, label %8, label %9

8:                                                ; preds = %4
  tail call void (ptr, i32, i32, ptr, ptr, ptr, ...) @arkProcessError(ptr noundef nonnull %0, i32 noundef -21, i32 noundef 3257, ptr noundef nonnull @__func__.arkCheckTemporalError, ptr noundef nonnull @.str, ptr noundef nonnull @.str.137)
  br label %68

9:                                                ; preds = %4
  %10 = fcmp ole double %3, 1.000000e+00
  %11 = getelementptr inbounds nuw i8, ptr %0, i64 896
  %12 = load double, ptr %11, align 8, !tbaa !18
  %13 = getelementptr inbounds nuw i8, ptr %0, i64 704
  %14 = load double, ptr %13, align 8, !tbaa !24
  %15 = fadd double %12, %14
  %16 = select i1 %10, double %15, double %12
  %17 = getelementptr inbounds nuw i8, ptr %0, i64 584
  %18 = load ptr, ptr %17, align 8, !tbaa !106
  %19 = tail call i32 @arkAdapt(ptr noundef nonnull %0, ptr noundef nonnull %6, ptr noundef %18, double noundef %16, double noundef %14, double noundef %3) #16
  %.not = icmp eq i32 %19, 0
  br i1 %.not, label %20, label %68

20:                                               ; preds = %9
  %21 = getelementptr inbounds nuw i8, ptr %0, i64 704
  %22 = getelementptr inbounds nuw i8, ptr %0, i64 744
  %23 = load double, ptr %22, align 8, !tbaa !19
  %24 = load ptr, ptr %5, align 8, !tbaa !78
  %25 = load double, ptr %24, align 8, !tbaa !124
  %26 = fcmp olt double %23, %25
  %. = select i1 %26, double %23, double %25
  %27 = getelementptr inbounds nuw i8, ptr %0, i64 712
  %28 = load double, ptr %27, align 8, !tbaa !126
  %29 = load double, ptr %21, align 8, !tbaa !24
  %30 = tail call double @llvm.fabs.f64(double %29)
  %31 = fdiv double %28, %30
  %32 = fcmp ogt double %., %31
  %33 = select i1 %32, double %., double %31
  %34 = getelementptr inbounds nuw i8, ptr %0, i64 720
  %35 = load double, ptr %34, align 8, !tbaa !144
  %36 = fmul double %30, %35
  %37 = fmul double %36, %33
  %38 = fcmp olt double %37, 1.000000e+00
  %39 = select i1 %38, double 1.000000e+00, double %37
  %40 = fdiv double %33, %39
  store double %40, ptr %22, align 8, !tbaa !19
  br i1 %10, label %68, label %41

41:                                               ; preds = %20
  %42 = load i32, ptr %2, align 4, !tbaa !115
  %43 = add nsw i32 %42, 1
  store i32 %43, ptr %2, align 4, !tbaa !115
  %44 = getelementptr inbounds nuw i8, ptr %0, i64 840
  %45 = load i64, ptr %44, align 8, !tbaa !149
  %46 = add nsw i64 %45, 1
  store i64 %46, ptr %44, align 8, !tbaa !149
  store i32 8, ptr %1, align 4, !tbaa !115
  %47 = load i32, ptr %2, align 4, !tbaa !115
  %48 = getelementptr inbounds nuw i8, ptr %0, i64 800
  %49 = load i32, ptr %48, align 8, !tbaa !150
  %50 = icmp eq i32 %47, %49
  br i1 %50, label %68, label %51

51:                                               ; preds = %41
  store double 1.000000e+00, ptr %6, align 8, !tbaa !124
  %52 = getelementptr inbounds nuw i8, ptr %6, i64 32
  %53 = load i32, ptr %52, align 8, !tbaa !151
  %.not79 = icmp slt i32 %47, %53
  br i1 %.not79, label %58, label %54

54:                                               ; preds = %51
  %55 = getelementptr inbounds nuw i8, ptr %6, i64 16
  %56 = load double, ptr %55, align 8, !tbaa !152
  %57 = fcmp olt double %40, %56
  %.80 = select i1 %57, double %40, double %56
  br label %58

58:                                               ; preds = %54, %51
  %59 = phi double [ %.80, %54 ], [ %40, %51 ]
  %60 = load double, ptr %24, align 8, !tbaa !124
  %61 = fcmp olt double %59, %60
  %.81 = select i1 %61, double %59, double %60
  %62 = fcmp ogt double %.81, %31
  %63 = select i1 %62, double %.81, double %31
  %64 = fmul double %36, %63
  %65 = fcmp olt double %64, 1.000000e+00
  %66 = select i1 %65, double 1.000000e+00, double %64
  %67 = fdiv double %63, %66
  store double %67, ptr %22, align 8, !tbaa !19
  br label %68

68:                                               ; preds = %41, %20, %9, %58, %8
  %.0 = phi i32 [ -21, %8 ], [ 5, %58 ], [ -3, %9 ], [ 0, %20 ], [ -3, %41 ]
  ret i32 %.0
}